	.section	__TEXT,__text,regular,pure_instructions
	.macosx_version_min 10, 7
	.p2align	4, 0x90
__ZN16futures_executor10local_pool12run_executor17hc98e90abfb6312c8E:
Lfunc_begin0:
	.file	1 "/Users/yixiao/.cargo/registry/src/rsproxy.cn-8f6827c7555bfaf8/futures-executor-0.3.25/src" "local_pool.rs"
	.loc	1 80 0
	.cfi_startproc
	.cfi_personality 155, _rust_eh_personality
	.cfi_lsda 16, Lexception0
	pushq	%rbp
	.cfi_def_cfa_offset 16
	.cfi_offset %rbp, -16
	movq	%rsp, %rbp
	.cfi_def_cfa_register %rbp
	subq	$48, %rsp
	movq	%rdi, -40(%rbp)
Ltmp0:
Ltmp13:
	.loc	1 81 18 prologue_end
	callq	__ZN16futures_executor5enter5enter17h49b260b22cb7cfb5E
Ltmp1:
	movb	%al, -41(%rbp)
	jmp	LBB0_3
LBB0_1:
	.loc	1 103 1
	jmp	LBB0_10
LBB0_2:
Ltmp12:
	.loc	1 0 1 is_stmt 0
	movq	%rax, %rcx
	movl	%edx, %eax
	movq	%rcx, -16(%rbp)
	movl	%eax, -8(%rbp)
	jmp	LBB0_1
LBB0_3:
Ltmp2:
	movb	-41(%rbp), %al
	.loc	1 81 18 is_stmt 1
	movzbl	%al, %edi
	andl	$1, %edi
	leaq	l___unnamed_2(%rip), %rsi
	leaq	l___unnamed_3(%rip), %rcx
	movl	$64, %edx
	callq	__ZN4core6result19Result$LT$T$C$E$GT$6expect17h7211a360587d185fE
Ltmp3:
	jmp	LBB0_4
LBB0_4:
	.loc	1 0 18 is_stmt 0
	leaq	-40(%rbp), %rax
Ltmp14:
	.loc	1 86 32 is_stmt 1
	movq	%rax, -24(%rbp)
	.loc	1 86 5 is_stmt 0
	movq	-24(%rbp), %rsi
Ltmp4:
	leaq	l___unnamed_4(%rip), %rdi
	callq	__ZN3std6thread5local17LocalKey$LT$T$GT$4with17hc805caf4ec09390eE
Ltmp5:
	jmp	LBB0_7
Ltmp15:
LBB0_5:
Ltmp7:
	.loc	1 0 5
	leaq	-32(%rbp), %rdi
	.loc	1 103 1 is_stmt 1
	callq	__ZN4core3ptr51drop_in_place$LT$futures_executor..enter..Enter$GT$17h95ce50b89b2e0347E
Ltmp8:
	jmp	LBB0_1
LBB0_6:
Ltmp6:
	.loc	1 0 1 is_stmt 0
	movq	%rax, %rcx
	movl	%edx, %eax
	movq	%rcx, -16(%rbp)
	movl	%eax, -8(%rbp)
	jmp	LBB0_5
LBB0_7:
Ltmp10:
	leaq	-32(%rbp), %rdi
	.loc	1 103 1
	callq	__ZN4core3ptr51drop_in_place$LT$futures_executor..enter..Enter$GT$17h95ce50b89b2e0347E
Ltmp11:
	jmp	LBB0_9
LBB0_8:
Ltmp9:
	.loc	1 80 1 is_stmt 1
	callq	__ZN4core9panicking15panic_no_unwind17h9e9aa826744a1464E
LBB0_9:
	.loc	1 103 1
	jmp	LBB0_11
LBB0_10:
	.loc	1 80 1
	movq	-16(%rbp), %rdi
	callq	__Unwind_Resume
LBB0_11:
	.loc	1 103 2
	addq	$48, %rsp
	popq	%rbp
	retq
Ltmp16:
Lfunc_end0:
	.cfi_endproc
	.section	__TEXT,__gcc_except_tab
	.p2align	2
GCC_except_table0:
Lexception0:
	.byte	255
	.byte	255
	.byte	1
	.uleb128 Lcst_end0-Lcst_begin0
Lcst_begin0:
	.uleb128 Ltmp0-Lfunc_begin0
	.uleb128 Ltmp3-Ltmp0
	.uleb128 Ltmp12-Lfunc_begin0
	.byte	0
	.uleb128 Ltmp4-Lfunc_begin0
	.uleb128 Ltmp5-Ltmp4
	.uleb128 Ltmp6-Lfunc_begin0
	.byte	0
	.uleb128 Ltmp7-Lfunc_begin0
	.uleb128 Ltmp8-Ltmp7
	.uleb128 Ltmp9-Lfunc_begin0
	.byte	0
	.uleb128 Ltmp10-Lfunc_begin0
	.uleb128 Ltmp11-Ltmp10
	.uleb128 Ltmp12-Lfunc_begin0
	.byte	0
	.uleb128 Ltmp11-Lfunc_begin0
	.uleb128 Lfunc_end0-Ltmp11
	.byte	0
	.byte	0
Lcst_end0:
	.p2align	2

	.section	__TEXT,__text,regular,pure_instructions
	.p2align	4, 0x90
__ZN16futures_executor10local_pool12run_executor28_$u7b$$u7b$closure$u7d$$u7d$17h5d44dd89ce66c6c6E:
Lfunc_begin1:
	.loc	1 86 0
	.cfi_startproc
	pushq	%rbp
	.cfi_def_cfa_offset 16
	.cfi_offset %rbp, -16
	movq	%rsp, %rbp
	.cfi_def_cfa_register %rbp
	subq	$112, %rsp
	movq	%rsi, -88(%rbp)
	movq	%rdi, %rax
	movq	-88(%rbp), %rdi
	movq	%rdi, -80(%rbp)
	movq	%rax, -72(%rbp)
	movq	%rdi, -8(%rbp)
Ltmp17:
	.loc	1 87 21 prologue_end
	callq	__ZN12futures_task9waker_ref9waker_ref17he386078b70b912acE
	movq	%rdx, -56(%rbp)
	movq	%rax, -64(%rbp)
Ltmp18:
	.loc	1 88 42
	leaq	-64(%rbp), %rdi
	callq	__ZN77_$LT$futures_task..waker_ref..WakerRef$u20$as$u20$core..ops..deref..Deref$GT$5deref17h47537b66c0c0ca4bE
	movq	%rax, -96(%rbp)
	.loc	1 0 42 is_stmt 0
	movq	-96(%rbp), %rdi
	.loc	1 88 22
	callq	__ZN4core4task4wake7Context10from_waker17h80568f1425f70e93E
	movq	%rax, -48(%rbp)
LBB1_3:
Ltmp19:
	.loc	1 90 37 is_stmt 1
	movq	-72(%rbp), %rdi
	leaq	-48(%rbp), %rax
	movq	%rax, -32(%rbp)
	movq	-32(%rbp), %rsi
	callq	__ZN16futures_executor10local_pool8block_on28_$u7b$$u7b$closure$u7d$$u7d$17ha5bbdb8a0c62bbf6E
	andb	$1, %al
	movb	%al, -33(%rbp)
	.loc	1 90 20 is_stmt 0
	movb	-33(%rbp), %al
	andb	$1, %al
	movzbl	%al, %eax
	cmpq	$0, %rax
	jne	LBB1_6
Ltmp20:
	.loc	1 102 6 is_stmt 1
	addq	$112, %rsp
	popq	%rbp
	retq
LBB1_6:
Ltmp21:
	.loc	1 92 13
	jmp	LBB1_7
LBB1_7:
	.loc	1 0 13 is_stmt 0
	movq	-80(%rbp), %rdi
	.loc	1 95 20 is_stmt 1
	callq	__ZN69_$LT$alloc..sync..Arc$LT$T$GT$$u20$as$u20$core..ops..deref..Deref$GT$5deref17hd73fc8d5c6601967E
	movq	%rax, -104(%rbp)
	.loc	1 0 20 is_stmt 0
	movq	-104(%rbp), %rdi
	.loc	1 95 20
	addq	$8, %rdi
	.loc	1 95 55
	movb	$2, -17(%rbp)
	.loc	1 95 20
	xorl	%esi, %esi
	movzbl	-17(%rbp), %edx
	callq	__ZN4core4sync6atomic10AtomicBool4swap17hbe9e0550468f2307E
	movb	%al, -105(%rbp)
	.loc	1 0 20
	movb	-105(%rbp), %al
	.loc	1 95 19
	xorb	$-1, %al
	testb	$1, %al
	jne	LBB1_10
	jmp	LBB1_3
LBB1_10:
	.loc	1 99 17 is_stmt 1
	callq	__ZN3std6thread4park17he6027d4dd6141647E
	jmp	LBB1_7
Ltmp22:
Lfunc_end1:
	.cfi_endproc

	.p2align	4, 0x90
__ZN16futures_executor10local_pool21CURRENT_THREAD_NOTIFY7__getit17hbc44a4be68b13dcbE:
Lfunc_begin2:
	.file	2 "/rustc/897e37553bba8b42751c67658967889d11ecd120/library/std/src/thread" "local.rs"
	.loc	2 318 0
	.cfi_startproc
	pushq	%rbp
	.cfi_def_cfa_offset 16
	.cfi_offset %rbp, -16
	movq	%rsp, %rbp
	.cfi_def_cfa_register %rbp
	subq	$32, %rsp
	movq	%rdi, -8(%rbp)
Ltmp23:
	.loc	2 345 31 prologue_end
	movq	%rdi, -16(%rbp)
	.loc	2 345 21 is_stmt 0
	movq	-16(%rbp), %rsi
	movq	__ZN16futures_executor10local_pool21CURRENT_THREAD_NOTIFY7__getit5__KEY17hb825c42c5dd9849fE@TLVP(%rip), %rdi
	callq	*(%rdi)
	movq	%rax, %rdi
	callq	__ZN3std6thread5local4fast12Key$LT$T$GT$3get17h22127c79b4298c3dE
	movq	%rax, -24(%rbp)
	.loc	2 0 21
	movq	-24(%rbp), %rax
	.loc	2 356 14 is_stmt 1
	addq	$32, %rsp
	popq	%rbp
	retq
Ltmp24:
Lfunc_end2:
	.cfi_endproc

	.p2align	4, 0x90
__ZN16futures_executor10local_pool8block_on17h5ee90260fc65bbf2E:
Lfunc_begin3:
	.loc	1 315 0
	.cfi_startproc
	.cfi_personality 155, _rust_eh_personality
	.cfi_lsda 16, Lexception1
	pushq	%rbp
	.cfi_def_cfa_offset 16
	.cfi_offset %rbp, -16
	movq	%rsp, %rbp
	.cfi_def_cfa_register %rbp
	subq	$80, %rsp
	movb	%dil, %al
	movb	%al, -57(%rbp)
	movb	-57(%rbp), %al
	movb	%al, -64(%rbp)
Ltmp28:
	.loc	1 316 5 prologue_end
	movb	-64(%rbp), %al
	movb	%al, -56(%rbp)
	leaq	-56(%rbp), %rax
	movq	%rax, -8(%rbp)
Ltmp29:
	.file	3 "/rustc/897e37553bba8b42751c67658967889d11ecd120/library/core/src" "pin.rs"
	.loc	3 579 9
	leaq	-56(%rbp), %rax
	movq	%rax, -16(%rbp)
	.loc	3 580 6
	movq	-16(%rbp), %rax
	movq	%rax, -72(%rbp)
	jmp	LBB3_3
Ltmp30:
LBB3_1:
	.loc	1 318 1
	jmp	LBB3_5
LBB3_2:
Ltmp27:
	.loc	1 0 1 is_stmt 0
	movq	%rax, %rcx
	movl	%edx, %eax
	movq	%rcx, -32(%rbp)
	movl	%eax, -24(%rbp)
	jmp	LBB3_1
LBB3_3:
	movq	-72(%rbp), %rax
Ltmp31:
	.loc	1 316 5 is_stmt 1
	movq	%rax, -48(%rbp)
	leaq	-48(%rbp), %rax
Ltmp32:
	.loc	1 317 18
	movq	%rax, -40(%rbp)
	.loc	1 317 5 is_stmt 0
	movq	-40(%rbp), %rdi
Ltmp25:
	callq	__ZN16futures_executor10local_pool12run_executor17hc98e90abfb6312c8E
Ltmp26:
	jmp	LBB3_4
Ltmp33:
LBB3_4:
	.loc	1 318 1 is_stmt 1
	jmp	LBB3_6
LBB3_5:
	.loc	1 315 1
	movq	-32(%rbp), %rdi
	callq	__Unwind_Resume
LBB3_6:
	.loc	1 318 2
	addq	$80, %rsp
	popq	%rbp
	retq
Ltmp34:
Lfunc_end3:
	.cfi_endproc
	.file	4 "/Users/develop/aierui/rust-training/src/async/futures-case1" "src/main.rs"
	.section	__TEXT,__gcc_except_tab
	.p2align	2
GCC_except_table3:
Lexception1:
	.byte	255
	.byte	255
	.byte	1
	.uleb128 Lcst_end1-Lcst_begin1
Lcst_begin1:
	.uleb128 Ltmp25-Lfunc_begin3
	.uleb128 Ltmp26-Ltmp25
	.uleb128 Ltmp27-Lfunc_begin3
	.byte	0
	.uleb128 Ltmp26-Lfunc_begin3
	.uleb128 Lfunc_end3-Ltmp26
	.byte	0
	.byte	0
Lcst_end1:
	.p2align	2

	.section	__TEXT,__text,regular,pure_instructions
	.p2align	4, 0x90
__ZN16futures_executor10local_pool8block_on28_$u7b$$u7b$closure$u7d$$u7d$17ha5bbdb8a0c62bbf6E:
Lfunc_begin4:
	.loc	1 317 0
	.cfi_startproc
	pushq	%rbp
	.cfi_def_cfa_offset 16
	.cfi_offset %rbp, -16
	movq	%rsp, %rbp
	.cfi_def_cfa_register %rbp
	subq	$64, %rsp
	movq	%rsi, -56(%rbp)
	movq	%rdi, -40(%rbp)
	movq	%rsi, -32(%rbp)
Ltmp35:
	.loc	1 317 23 prologue_end
	movq	(%rdi), %rdi
	movq	%rdi, -16(%rbp)
Ltmp36:
	.loc	3 650 42
	callq	__ZN60_$LT$$RF$mut$u20$T$u20$as$u20$core..ops..deref..DerefMut$GT$9deref_mut17h845fabe004999b58E
	.loc	3 650 37 is_stmt 0
	movq	%rax, -8(%rbp)
Ltmp37:
	.loc	3 579 9 is_stmt 1
	movq	%rax, -24(%rbp)
Ltmp38:
	.loc	3 651 6
	movq	-24(%rbp), %rax
	movq	%rax, -48(%rbp)
Ltmp39:
	.loc	3 0 6 is_stmt 0
	movq	-56(%rbp), %rsi
	movq	-48(%rbp), %rdi
	.loc	1 317 23 is_stmt 1
	callq	__ZN97_$LT$core..future..from_generator..GenFuture$LT$T$GT$$u20$as$u20$core..future..future..Future$GT$4poll17h3b5a65c5e6ded019E
	movb	%al, -57(%rbp)
	.loc	1 0 23 is_stmt 0
	movb	-57(%rbp), %al
	.loc	1 317 42
	andb	$1, %al
	movzbl	%al, %eax
	addq	$64, %rsp
	popq	%rbp
	retq
Ltmp40:
Lfunc_end4:
	.cfi_endproc

	.p2align	4, 0x90
__ZN3std10sys_common9backtrace28__rust_begin_short_backtrace17hc026e6521768275fE:
Lfunc_begin5:
	.file	5 "/rustc/897e37553bba8b42751c67658967889d11ecd120/library/std/src/sys_common" "backtrace.rs"
	.loc	5 118 0 is_stmt 1
	.cfi_startproc
	pushq	%rbp
	.cfi_def_cfa_offset 16
	.cfi_offset %rbp, -16
	movq	%rsp, %rbp
	.cfi_def_cfa_register %rbp
	subq	$48, %rsp
	movq	%rdi, -32(%rbp)
Ltmp41:
	.loc	5 122 18 prologue_end
	callq	__ZN4core3ops8function6FnOnce9call_once17h9134c39ed68b372bE
Ltmp42:
	.file	6 "/rustc/897e37553bba8b42751c67658967889d11ecd120/library/core/src" "hint.rs"
	.loc	6 223 5
	## InlineAsm Start
	## InlineAsm End
Ltmp43:
	.loc	5 128 2
	addq	$48, %rsp
	popq	%rbp
	retq
Ltmp44:
Lfunc_end5:
	.cfi_endproc

	.private_extern	__ZN3std2rt10lang_start17hbeeaed5a0635960aE
	.globl	__ZN3std2rt10lang_start17hbeeaed5a0635960aE
	.p2align	4, 0x90
__ZN3std2rt10lang_start17hbeeaed5a0635960aE:
Lfunc_begin6:
	.file	7 "/rustc/897e37553bba8b42751c67658967889d11ecd120/library/std/src" "rt.rs"
	.loc	7 159 0
	.cfi_startproc
	pushq	%rbp
	.cfi_def_cfa_offset 16
	.cfi_offset %rbp, -16
	movq	%rsp, %rbp
	.cfi_def_cfa_register %rbp
	subq	$64, %rsp
	movl	%ecx, %eax
	movq	%rdx, %rcx
	movq	%rsi, %rdx
	movq	%rdi, -40(%rbp)
	movq	%rdx, -32(%rbp)
	movq	%rcx, -24(%rbp)
	movb	%al, -9(%rbp)
Ltmp45:
	.loc	7 166 10 prologue_end
	movq	%rdi, -48(%rbp)
	.loc	7 165 17
	leaq	-48(%rbp), %rdi
	leaq	l___unnamed_1(%rip), %rsi
	movzbl	%al, %r8d
	callq	__ZN3std2rt19lang_start_internal17ha5deaf08dab8765bE
	movq	%rax, -56(%rbp)
	.loc	7 165 12 is_stmt 0
	movq	-56(%rbp), %rax
	movq	%rax, -8(%rbp)
	.loc	7 175 2 is_stmt 1
	addq	$64, %rsp
	popq	%rbp
	retq
Ltmp46:
Lfunc_end6:
	.cfi_endproc

	.p2align	4, 0x90
__ZN3std2rt10lang_start28_$u7b$$u7b$closure$u7d$$u7d$17ha3071c7506129691E:
Lfunc_begin7:
	.loc	7 166 0
	.cfi_startproc
	pushq	%rbp
	.cfi_def_cfa_offset 16
	.cfi_offset %rbp, -16
	movq	%rsp, %rbp
	.cfi_def_cfa_register %rbp
	subq	$32, %rsp
	movq	%rdi, -16(%rbp)
Ltmp47:
	.loc	7 166 77 prologue_end
	movq	(%rdi), %rdi
	.loc	7 166 18 is_stmt 0
	callq	__ZN3std10sys_common9backtrace28__rust_begin_short_backtrace17hc026e6521768275fE
	callq	__ZN54_$LT$$LP$$RP$$u20$as$u20$std..process..Termination$GT$6report17h566cc7ec0ad3ca48E
	movb	%al, -17(%rbp)
Ltmp48:
	.file	8 "/rustc/897e37553bba8b42751c67658967889d11ecd120/library/std/src" "process.rs"
	.loc	8 1809 9 is_stmt 1
	leaq	-17(%rbp), %rax
	movq	%rax, -8(%rbp)
Ltmp49:
	.file	9 "/rustc/897e37553bba8b42751c67658967889d11ecd120/library/std/src/sys/unix/process" "process_common.rs"
	.loc	9 539 9
	movzbl	-17(%rbp), %eax
Ltmp50:
	.loc	7 166 100
	addq	$32, %rsp
	popq	%rbp
	retq
Ltmp51:
Lfunc_end7:
	.cfi_endproc

	.p2align	4, 0x90
__ZN3std6thread5local17LocalKey$LT$T$GT$4with17hc805caf4ec09390eE:
Lfunc_begin8:
	.loc	2 417 0
	.cfi_startproc
	pushq	%rbp
	.cfi_def_cfa_offset 16
	.cfi_offset %rbp, -16
	movq	%rsp, %rbp
	.cfi_def_cfa_register %rbp
	subq	$32, %rsp
	movq	%rdi, -16(%rbp)
	movq	%rsi, -8(%rbp)
Ltmp52:
	.loc	2 421 9 prologue_end
	callq	__ZN3std6thread5local17LocalKey$LT$T$GT$8try_with17h895104d1dd9234e5E
	movb	%al, -17(%rbp)
	.loc	2 0 9 is_stmt 0
	movb	-17(%rbp), %al
	.loc	2 421 9
	movzbl	%al, %edi
	andl	$1, %edi
	leaq	l___unnamed_5(%rip), %rsi
	leaq	l___unnamed_6(%rip), %rcx
	movl	$70, %edx
	callq	__ZN4core6result19Result$LT$T$C$E$GT$6expect17h0093435151133a4cE
	.loc	2 425 6 is_stmt 1
	addq	$32, %rsp
	popq	%rbp
	retq
Ltmp53:
Lfunc_end8:
	.cfi_endproc

	.p2align	4, 0x90
__ZN3std6thread5local17LocalKey$LT$T$GT$8try_with17h895104d1dd9234e5E:
Lfunc_begin9:
	.loc	2 439 0
	.cfi_startproc
	.cfi_personality 155, _rust_eh_personality
	.cfi_lsda 16, Lexception2
	pushq	%rbp
	.cfi_def_cfa_offset 16
	.cfi_offset %rbp, -16
	movq	%rsp, %rbp
	.cfi_def_cfa_register %rbp
	subq	$192, %rsp
	movq	%rsi, -184(%rbp)
	movq	%rdi, -112(%rbp)
	movq	%rsi, -104(%rbp)
Ltmp59:
	.loc	2 444 17 prologue_end
	movb	$1, -113(%rbp)
	.loc	2 444 32 is_stmt 0
	movq	(%rdi), %rax
	.loc	2 444 45
	movq	$0, -136(%rbp)
	.loc	2 444 32
	movq	-136(%rbp), %rdi
Ltmp54:
	callq	*%rax
Ltmp55:
	movq	%rax, -176(%rbp)
	jmp	LBB9_3
LBB9_1:
	.loc	2 447 5 is_stmt 1
	testb	$1, -113(%rbp)
	jne	LBB9_18
	jmp	LBB9_17
LBB9_2:
Ltmp58:
	.loc	2 0 5 is_stmt 0
	movq	%rax, %rcx
	movl	%edx, %eax
	movq	%rcx, -48(%rbp)
	movl	%eax, -40(%rbp)
	jmp	LBB9_1
LBB9_3:
	movq	-176(%rbp), %rax
	.loc	2 444 32 is_stmt 1
	movq	%rax, -144(%rbp)
Ltmp60:
	.file	10 "/rustc/897e37553bba8b42751c67658967889d11ecd120/library/core/src" "option.rs"
	.loc	10 1055 15
	movq	-144(%rbp), %rax
	testq	%rax, %rax
	setne	%al
	movzbl	%al, %eax
	.loc	10 1055 9 is_stmt 0
	je	LBB9_5
	jmp	LBB9_19
LBB9_19:
	jmp	LBB9_6
	.loc	10 1055 15
	ud2
LBB9_5:
	.loc	10 1057 21 is_stmt 1
	movq	$0, -152(%rbp)
	.loc	10 1057 28 is_stmt 0
	jmp	LBB9_7
LBB9_6:
	.loc	10 1056 18 is_stmt 1
	movq	-144(%rbp), %rax
	movq	%rax, -32(%rbp)
Ltmp61:
	.loc	10 1056 24 is_stmt 0
	movq	%rax, -152(%rbp)
Ltmp62:
LBB9_7:
	.file	11 "/rustc/897e37553bba8b42751c67658967889d11ecd120/library/core/src" "result.rs"
	.loc	11 2089 15 is_stmt 1
	movq	-152(%rbp), %rax
	testq	%rax, %rax
	sete	%al
	movzbl	%al, %eax
	.loc	11 2089 9 is_stmt 0
	jne	LBB9_9
	jmp	LBB9_20
LBB9_20:
	jmp	LBB9_10
	.loc	11 2089 15
	ud2
LBB9_9:
	.loc	11 2090 16 is_stmt 1
	movq	-152(%rbp), %rax
	movq	%rax, -24(%rbp)
Ltmp63:
	.loc	11 2090 22 is_stmt 0
	movq	%rax, -160(%rbp)
Ltmp64:
	.loc	11 2090 45
	jmp	LBB9_11
LBB9_10:
Ltmp65:
	.loc	11 2091 23 is_stmt 1
	movq	$0, -160(%rbp)
Ltmp66:
LBB9_11:
	.loc	2 444 32
	movq	-160(%rbp), %rax
	testq	%rax, %rax
	sete	%al
	movzbl	%al, %eax
	jne	LBB9_13
	jmp	LBB9_21
LBB9_21:
	jmp	LBB9_14
	ud2
LBB9_13:
	.loc	2 0 32 is_stmt 0
	movq	-184(%rbp), %rdi
	.loc	2 444 32
	movq	-160(%rbp), %rax
	movq	%rax, -16(%rbp)
Ltmp67:
	.loc	2 444 32
	movq	%rax, -8(%rbp)
Ltmp68:
	.loc	2 445 16 is_stmt 1
	movb	$0, -113(%rbp)
	movq	%rax, -128(%rbp)
	movq	-128(%rbp), %rsi
Ltmp56:
	callq	__ZN16futures_executor10local_pool12run_executor28_$u7b$$u7b$closure$u7d$$u7d$17h5d44dd89ce66c6c6E
Ltmp57:
	jmp	LBB9_16
Ltmp69:
LBB9_14:
	.loc	11 2105 23
	movb	$1, -161(%rbp)
Ltmp70:
LBB9_15:
	.loc	2 447 6
	movb	-161(%rbp), %al
	andb	$1, %al
	movzbl	%al, %eax
	addq	$192, %rsp
	popq	%rbp
	retq
LBB9_16:
Ltmp71:
	.loc	2 445 13
	movb	$0, -161(%rbp)
Ltmp72:
	.loc	2 447 5
	jmp	LBB9_15
LBB9_17:
	.loc	2 439 5
	movq	-48(%rbp), %rdi
	callq	__Unwind_Resume
LBB9_18:
	.loc	2 447 5
	jmp	LBB9_17
Ltmp73:
Lfunc_end9:
	.cfi_endproc
	.section	__TEXT,__gcc_except_tab
	.p2align	2
GCC_except_table9:
Lexception2:
	.byte	255
	.byte	255
	.byte	1
	.uleb128 Lcst_end2-Lcst_begin2
Lcst_begin2:
	.uleb128 Ltmp54-Lfunc_begin9
	.uleb128 Ltmp57-Ltmp54
	.uleb128 Ltmp58-Lfunc_begin9
	.byte	0
	.uleb128 Ltmp57-Lfunc_begin9
	.uleb128 Lfunc_end9-Ltmp57
	.byte	0
	.byte	0
Lcst_end2:
	.p2align	2

	.section	__TEXT,__text,regular,pure_instructions
	.p2align	4, 0x90
__ZN4core3fmt9Arguments6new_v117h6819542474ea6e81E:
Lfunc_begin10:
	.file	12 "/rustc/897e37553bba8b42751c67658967889d11ecd120/library/core/src/fmt" "mod.rs"
	.loc	12 394 0
	.cfi_startproc
	pushq	%rbp
	.cfi_def_cfa_offset 16
	.cfi_offset %rbp, -16
	movq	%rsp, %rbp
	.cfi_def_cfa_register %rbp
	subq	$160, %rsp
	movq	%r8, -152(%rbp)
	movq	%rcx, -144(%rbp)
	movq	%rdx, -136(%rbp)
	movq	%rsi, -128(%rbp)
	movq	%rdi, -120(%rbp)
	movq	%rdi, -112(%rbp)
	movq	%rsi, -32(%rbp)
	movq	%rdx, -24(%rbp)
	movq	%rcx, -16(%rbp)
	movq	%r8, -8(%rbp)
Ltmp74:
	.loc	12 395 12 prologue_end
	cmpq	%r8, %rdx
	jb	LBB10_2
	.loc	12 0 12 is_stmt 0
	movq	-136(%rbp), %rax
	movq	-152(%rbp), %rcx
	.loc	12 395 56
	addq	$1, %rcx
	.loc	12 395 41
	cmpq	%rcx, %rax
	seta	%al
	.loc	12 395 12
	andb	$1, %al
	movb	%al, -97(%rbp)
	jmp	LBB10_3
LBB10_2:
	movb	$1, -97(%rbp)
LBB10_3:
	testb	$1, -97(%rbp)
	jne	LBB10_5
	.loc	12 0 12
	movq	-112(%rbp), %rax
	movq	-120(%rbp), %rcx
	movq	-152(%rbp), %rdx
	movq	-144(%rbp), %rsi
	movq	-136(%rbp), %rdi
	movq	-128(%rbp), %r8
	.loc	12 398 34 is_stmt 1
	movq	$0, -48(%rbp)
	.loc	12 398 9 is_stmt 0
	movq	%r8, (%rcx)
	movq	%rdi, 8(%rcx)
	movq	-48(%rbp), %r8
	movq	-40(%rbp), %rdi
	movq	%r8, 16(%rcx)
	movq	%rdi, 24(%rcx)
	movq	%rsi, 32(%rcx)
	movq	%rdx, 40(%rcx)
	.loc	12 399 6 is_stmt 1
	addq	$160, %rsp
	popq	%rbp
	retq
LBB10_5:
	.loc	12 396 13
	leaq	-96(%rbp), %rdi
	leaq	l___unnamed_7(%rip), %rsi
	movl	$1, %edx
	leaq	l___unnamed_8(%rip), %rcx
	xorl	%eax, %eax
	movl	%eax, %r8d
	callq	__ZN4core3fmt9Arguments6new_v117h6819542474ea6e81E
	leaq	l___unnamed_9(%rip), %rsi
	leaq	-96(%rbp), %rdi
	callq	__ZN4core9panicking9panic_fmt17hcf6f3c517c6f3cb3E
Ltmp75:
Lfunc_end10:
	.cfi_endproc

	.p2align	4, 0x90
__ZN4core3ops8function6FnOnce40call_once$u7b$$u7b$vtable.shim$u7d$$u7d$17h74173eb59cfa1fe7E:
Lfunc_begin11:
	.file	13 "/rustc/897e37553bba8b42751c67658967889d11ecd120/library/core/src/ops" "function.rs"
	.loc	13 248 0
	.cfi_startproc
	pushq	%rbp
	.cfi_def_cfa_offset 16
	.cfi_offset %rbp, -16
	movq	%rsp, %rbp
	.cfi_def_cfa_register %rbp
	subq	$32, %rsp
	movq	%rdi, -8(%rbp)
Ltmp76:
	.loc	13 248 5 prologue_end
	movq	(%rdi), %rdi
	callq	__ZN4core3ops8function6FnOnce9call_once17h7d7c70d14e49328dE
	movl	%eax, -20(%rbp)
	.loc	13 0 5 is_stmt 0
	movl	-20(%rbp), %eax
	.loc	13 248 5
	addq	$32, %rsp
	popq	%rbp
	retq
Ltmp77:
Lfunc_end11:
	.cfi_endproc

	.p2align	4, 0x90
__ZN4core3ops8function6FnOnce9call_once17h7d7c70d14e49328dE:
Lfunc_begin12:
	.loc	13 248 0 is_stmt 1
	.cfi_startproc
	.cfi_personality 155, _rust_eh_personality
	.cfi_lsda 16, Lexception3
	pushq	%rbp
	.cfi_def_cfa_offset 16
	.cfi_offset %rbp, -16
	movq	%rsp, %rbp
	.cfi_def_cfa_register %rbp
	subq	$48, %rsp
	movq	%rdi, -32(%rbp)
Ltmp78:
	leaq	-32(%rbp), %rdi
Ltmp81:
	.loc	13 248 5 prologue_end
	callq	__ZN3std2rt10lang_start28_$u7b$$u7b$closure$u7d$$u7d$17ha3071c7506129691E
Ltmp79:
	movl	%eax, -36(%rbp)
	jmp	LBB12_3
LBB12_1:
	jmp	LBB12_4
LBB12_2:
Ltmp80:
	.loc	13 0 5 is_stmt 0
	movq	%rax, %rcx
	movl	%edx, %eax
	movq	%rcx, -16(%rbp)
	movl	%eax, -8(%rbp)
	jmp	LBB12_1
LBB12_3:
	.loc	13 248 5
	jmp	LBB12_5
LBB12_4:
	movq	-16(%rbp), %rdi
	callq	__Unwind_Resume
LBB12_5:
	.loc	13 0 5
	movl	-36(%rbp), %eax
	.loc	13 248 5
	addq	$48, %rsp
	popq	%rbp
	retq
Ltmp82:
Lfunc_end12:
	.cfi_endproc
	.section	__TEXT,__gcc_except_tab
	.p2align	2
GCC_except_table12:
Lexception3:
	.byte	255
	.byte	255
	.byte	1
	.uleb128 Lcst_end3-Lcst_begin3
Lcst_begin3:
	.uleb128 Ltmp78-Lfunc_begin12
	.uleb128 Ltmp79-Ltmp78
	.uleb128 Ltmp80-Lfunc_begin12
	.byte	0
	.uleb128 Ltmp79-Lfunc_begin12
	.uleb128 Lfunc_end12-Ltmp79
	.byte	0
	.byte	0
Lcst_end3:
	.p2align	2

	.section	__TEXT,__text,regular,pure_instructions
	.p2align	4, 0x90
__ZN4core3ops8function6FnOnce9call_once17h9134c39ed68b372bE:
Lfunc_begin13:
	.loc	13 248 0 is_stmt 1
	.cfi_startproc
	pushq	%rbp
	.cfi_def_cfa_offset 16
	.cfi_offset %rbp, -16
	movq	%rsp, %rbp
	.cfi_def_cfa_register %rbp
	subq	$16, %rsp
	movq	%rdi, -8(%rbp)
Ltmp83:
	.loc	13 248 5 prologue_end
	callq	*%rdi
	addq	$16, %rsp
	popq	%rbp
	retq
Ltmp84:
Lfunc_end13:
	.cfi_endproc

	.p2align	4, 0x90
__ZN4core3pin24Pin$LT$$RF$mut$u20$T$GT$17map_unchecked_mut17h37051d8286bb9fdfE:
Lfunc_begin14:
	.loc	3 788 0
	.cfi_startproc
	.cfi_personality 155, _rust_eh_personality
	.cfi_lsda 16, Lexception4
	pushq	%rbp
	.cfi_def_cfa_offset 16
	.cfi_offset %rbp, -16
	movq	%rsp, %rbp
	.cfi_def_cfa_register %rbp
	subq	$96, %rsp
	movq	%rdi, -56(%rbp)
Ltmp88:
	.loc	3 795 55 prologue_end
	movq	%rdi, -72(%rbp)
Ltmp89:
	.loc	3 768 9
	movq	-72(%rbp), %rax
Ltmp90:
	.loc	3 795 32
	movq	%rax, -40(%rbp)
Ltmp91:
	.loc	3 796 27
	movq	%rax, -64(%rbp)
	movq	-64(%rbp), %rdi
Ltmp85:
	callq	__ZN97_$LT$core..future..from_generator..GenFuture$LT$T$GT$$u20$as$u20$core..future..future..Future$GT$4poll28_$u7b$$u7b$closure$u7d$$u7d$17h2a067714c30943d3E
Ltmp86:
	movq	%rax, -88(%rbp)
	jmp	LBB14_3
Ltmp92:
LBB14_1:
	.loc	3 800 5
	xorl	%eax, %eax
	testb	$1, %al
	jne	LBB14_5
	jmp	LBB14_4
LBB14_2:
Ltmp87:
	.loc	3 0 5 is_stmt 0
	movq	%rax, %rcx
	movl	%edx, %eax
	movq	%rcx, -32(%rbp)
	movl	%eax, -24(%rbp)
	jmp	LBB14_1
LBB14_3:
	movq	-88(%rbp), %rax
Ltmp93:
	.loc	3 796 27 is_stmt 1
	movq	%rax, -16(%rbp)
Ltmp94:
	.loc	3 799 37
	movq	%rax, -8(%rbp)
Ltmp95:
	.loc	3 579 9
	movq	%rax, -80(%rbp)
Ltmp96:
	.loc	3 800 6
	movq	-80(%rbp), %rax
	addq	$96, %rsp
	popq	%rbp
	retq
LBB14_4:
	.loc	3 788 5
	movq	-32(%rbp), %rdi
	callq	__Unwind_Resume
LBB14_5:
	.loc	3 800 5
	jmp	LBB14_4
Ltmp97:
Lfunc_end14:
	.cfi_endproc
	.section	__TEXT,__gcc_except_tab
	.p2align	2
GCC_except_table14:
Lexception4:
	.byte	255
	.byte	255
	.byte	1
	.uleb128 Lcst_end4-Lcst_begin4
Lcst_begin4:
	.uleb128 Ltmp85-Lfunc_begin14
	.uleb128 Ltmp86-Ltmp85
	.uleb128 Ltmp87-Lfunc_begin14
	.byte	0
	.uleb128 Ltmp86-Lfunc_begin14
	.uleb128 Lfunc_end14-Ltmp86
	.byte	0
	.byte	0
Lcst_end4:
	.p2align	2

	.section	__TEXT,__text,regular,pure_instructions
	.p2align	4, 0x90
__ZN4core3ptr85drop_in_place$LT$std..rt..lang_start$LT$$LP$$RP$$GT$..$u7b$$u7b$closure$u7d$$u7d$$GT$17h68c08e8eb5d12d22E:
Lfunc_begin15:
	.file	14 "/rustc/897e37553bba8b42751c67658967889d11ecd120/library/core/src/ptr" "mod.rs"
	.loc	14 487 0
	.cfi_startproc
	pushq	%rbp
	.cfi_def_cfa_offset 16
	.cfi_offset %rbp, -16
	movq	%rsp, %rbp
	.cfi_def_cfa_register %rbp
	pushq	%rax
	movq	%rdi, -8(%rbp)
Ltmp98:
	.loc	14 487 1 prologue_end
	addq	$8, %rsp
	popq	%rbp
	retq
Ltmp99:
Lfunc_end15:
	.cfi_endproc

	.p2align	4, 0x90
__ZN4core4sync6atomic10AtomicBool4swap17hbe9e0550468f2307E:
Lfunc_begin16:
	.file	15 "/rustc/897e37553bba8b42751c67658967889d11ecd120/library/core/src/sync" "atomic.rs"
	.loc	15 513 0
	.cfi_startproc
	pushq	%rbp
	.cfi_def_cfa_offset 16
	.cfi_offset %rbp, -16
	movq	%rsp, %rbp
	.cfi_def_cfa_register %rbp
	subq	$32, %rsp
	movb	%dl, %al
	movb	%sil, %cl
	movq	%rdi, -24(%rbp)
	movb	%cl, %dl
	andb	$1, %dl
	movb	%dl, -10(%rbp)
	movb	%al, -9(%rbp)
Ltmp100:
	.loc	15 515 30 prologue_end
	movq	%rdi, -8(%rbp)
	.loc	15 515 44 is_stmt 0
	andb	$1, %cl
	.loc	15 515 18
	movzbl	%cl, %esi
	movzbl	%al, %edx
	callq	__ZN4core4sync6atomic11atomic_swap17h8c60f67e37478d7cE
	movb	%al, -25(%rbp)
	.loc	15 0 18
	movb	-25(%rbp), %al
	.loc	15 515 18
	cmpb	$0, %al
	setne	%al
	.loc	15 516 6 is_stmt 1
	andb	$1, %al
	movzbl	%al, %eax
	addq	$32, %rsp
	popq	%rbp
	retq
Ltmp101:
Lfunc_end16:
	.cfi_endproc

	.p2align	4, 0x90
__ZN4core4task4wake7Context10from_waker17h80568f1425f70e93E:
Lfunc_begin17:
	.file	16 "/rustc/897e37553bba8b42751c67658967889d11ecd120/library/core/src/task" "wake.rs"
	.loc	16 191 0
	.cfi_startproc
	pushq	%rbp
	.cfi_def_cfa_offset 16
	.cfi_offset %rbp, -16
	movq	%rsp, %rbp
	.cfi_def_cfa_register %rbp
	subq	$16, %rsp
	movq	%rdi, -8(%rbp)
Ltmp102:
	.loc	16 192 9 prologue_end
	movq	%rdi, -16(%rbp)
	.loc	16 193 6
	movq	-16(%rbp), %rax
	addq	$16, %rsp
	popq	%rbp
	retq
Ltmp103:
Lfunc_end17:
	.cfi_endproc

	.p2align	4, 0x90
__ZN4core6future14from_generator17h06a610df80ef6e4dE:
Lfunc_begin18:
	.file	17 "/rustc/897e37553bba8b42751c67658967889d11ecd120/library/core/src/future" "mod.rs"
	.loc	17 72 0
	.cfi_startproc
	pushq	%rbp
	.cfi_def_cfa_offset 16
	.cfi_offset %rbp, -16
	movq	%rsp, %rbp
	.cfi_def_cfa_register %rbp
	subq	$24, %rsp
	movb	%dil, %al
	movb	%al, -17(%rbp)
	movb	-17(%rbp), %al
	movb	%al, -24(%rbp)
Ltmp104:
	.loc	17 98 15 prologue_end
	movb	-24(%rbp), %al
	movb	%al, -8(%rbp)
	.loc	17 98 5 is_stmt 0
	movb	-8(%rbp), %al
	movb	%al, -16(%rbp)
	.loc	17 99 2 is_stmt 1
	movb	-16(%rbp), %al
	addq	$24, %rsp
	popq	%rbp
	retq
Ltmp105:
Lfunc_end18:
	.cfi_endproc

	.p2align	4, 0x90
__ZN54_$LT$$LP$$RP$$u20$as$u20$std..process..Termination$GT$6report17h566cc7ec0ad3ca48E:
Lfunc_begin19:
	.loc	8 2170 0
	.cfi_startproc
	pushq	%rbp
	.cfi_def_cfa_offset 16
	.cfi_offset %rbp, -16
	movq	%rsp, %rbp
	.cfi_def_cfa_register %rbp
	pushq	%rax
Ltmp106:
	.loc	8 2172 6 prologue_end
	xorl	%eax, %eax
	addq	$8, %rsp
	popq	%rbp
	retq
Ltmp107:
Lfunc_end19:
	.cfi_endproc

	.p2align	4, 0x90
__ZN60_$LT$$RF$mut$u20$T$u20$as$u20$core..ops..deref..DerefMut$GT$9deref_mut17h845fabe004999b58E:
Lfunc_begin20:
	.file	18 "/rustc/897e37553bba8b42751c67658967889d11ecd120/library/core/src/ops" "deref.rs"
	.loc	18 180 0
	.cfi_startproc
	pushq	%rbp
	.cfi_def_cfa_offset 16
	.cfi_offset %rbp, -16
	movq	%rsp, %rbp
	.cfi_def_cfa_register %rbp
	pushq	%rax
	movq	%rdi, -8(%rbp)
Ltmp108:
	.loc	18 181 9 prologue_end
	movq	(%rdi), %rax
	.loc	18 182 6
	addq	$8, %rsp
	popq	%rbp
	retq
Ltmp109:
Lfunc_end20:
	.cfi_endproc

	.p2align	4, 0x90
__ZN77_$LT$futures_task..waker_ref..WakerRef$u20$as$u20$core..ops..deref..Deref$GT$5deref17h47537b66c0c0ca4bE:
Lfunc_begin21:
	.file	19 "/Users/yixiao/.cargo/registry/src/rsproxy.cn-8f6827c7555bfaf8/futures-task-0.3.25/src" "waker_ref.rs"
	.loc	19 45 0
	.cfi_startproc
	pushq	%rbp
	.cfi_def_cfa_offset 16
	.cfi_offset %rbp, -16
	movq	%rsp, %rbp
	.cfi_def_cfa_register %rbp
	subq	$24, %rsp
	movq	%rdi, -24(%rbp)
	movq	%rdi, -16(%rbp)
	movq	%rdi, -8(%rbp)
	movq	-24(%rbp), %rax
Ltmp110:
	.loc	19 47 6 prologue_end
	addq	$24, %rsp
	popq	%rbp
	retq
Ltmp111:
Lfunc_end21:
	.cfi_endproc

	.p2align	4, 0x90
__ZN97_$LT$core..future..from_generator..GenFuture$LT$T$GT$$u20$as$u20$core..future..future..Future$GT$4poll17h3b5a65c5e6ded019E:
Lfunc_begin22:
	.loc	17 85 0
	.cfi_startproc
	pushq	%rbp
	.cfi_def_cfa_offset 16
	.cfi_offset %rbp, -16
	movq	%rsp, %rbp
	.cfi_def_cfa_register %rbp
	subq	$112, %rsp
	movq	%rsi, -104(%rbp)
	movq	%rdi, -56(%rbp)
	movq	%rsi, -48(%rbp)
Ltmp112:
	.loc	17 87 32 prologue_end
	callq	__ZN4core3pin24Pin$LT$$RF$mut$u20$T$GT$17map_unchecked_mut17h37051d8286bb9fdfE
	movq	%rax, -96(%rbp)
	movq	%rax, -32(%rbp)
	.loc	17 0 32 is_stmt 0
	movq	-96(%rbp), %rdi
	movq	-104(%rbp), %rax
Ltmp113:
	.loc	17 91 53 is_stmt 1
	movq	%rax, -24(%rbp)
Ltmp114:
	.file	20 "/rustc/897e37553bba8b42751c67658967889d11ecd120/library/core/src/ptr" "non_null.rs"
	.loc	20 786 18
	movq	%rax, -64(%rbp)
Ltmp115:
	.loc	20 455 41
	movq	-64(%rbp), %rax
	movq	%rax, -16(%rbp)
	movq	%rax, -8(%rbp)
Ltmp116:
	.loc	20 198 18
	movq	%rax, -72(%rbp)
Ltmp117:
	.loc	17 91 30
	movq	-72(%rbp), %rax
	movq	%rax, -80(%rbp)
	.loc	17 91 19 is_stmt 0
	movq	-80(%rbp), %rsi
	callq	__ZN5case111hello_world28_$u7b$$u7b$closure$u7d$$u7d$17hb0dd35a3f0b0bb8eE
	andb	$1, %al
	movb	%al, -81(%rbp)
	movzbl	-81(%rbp), %eax
	.loc	17 91 13
	testb	$1, %al
	je	LBB22_4
	jmp	LBB22_7
LBB22_7:
	jmp	LBB22_5
	.loc	17 91 19
	ud2
LBB22_4:
	.loc	17 92 48 is_stmt 1
	movb	$1, -82(%rbp)
	jmp	LBB22_6
LBB22_5:
Ltmp118:
	.loc	17 93 48
	movb	$0, -82(%rbp)
Ltmp119:
LBB22_6:
	.loc	17 95 10
	movb	-82(%rbp), %al
	andb	$1, %al
	movzbl	%al, %eax
	addq	$112, %rsp
	popq	%rbp
	retq
Ltmp120:
Lfunc_end22:
	.cfi_endproc

	.p2align	4, 0x90
__ZN97_$LT$core..future..from_generator..GenFuture$LT$T$GT$$u20$as$u20$core..future..future..Future$GT$4poll28_$u7b$$u7b$closure$u7d$$u7d$17h2a067714c30943d3E:
Lfunc_begin23:
	.loc	17 87 0
	.cfi_startproc
	pushq	%rbp
	.cfi_def_cfa_offset 16
	.cfi_offset %rbp, -16
	movq	%rsp, %rbp
	.cfi_def_cfa_register %rbp
	subq	$16, %rsp
	movq	%rdi, %rax
	movq	%rax, -8(%rbp)
Ltmp121:
	.loc	17 87 73 prologue_end
	addq	$16, %rsp
	popq	%rbp
	retq
Ltmp122:
Lfunc_end23:
	.cfi_endproc

	.p2align	4, 0x90
__ZN5case111hello_world17ha310ee2212466be9E:
Lfunc_begin24:
	.loc	4 6 0
	.cfi_startproc
	pushq	%rbp
	.cfi_def_cfa_offset 16
	.cfi_offset %rbp, -16
	movq	%rsp, %rbp
	.cfi_def_cfa_register %rbp
	subq	$16, %rsp
Ltmp123:
	.loc	4 6 24 prologue_end
	movb	$0, -8(%rbp)
	movzbl	-8(%rbp), %edi
	callq	__ZN4core6future14from_generator17h06a610df80ef6e4dE
	movb	%al, -1(%rbp)
	movb	-1(%rbp), %al
	movb	%al, -16(%rbp)
	.loc	4 8 2
	movb	-16(%rbp), %al
	addq	$16, %rsp
	popq	%rbp
	retq
Ltmp124:
Lfunc_end24:
	.cfi_endproc

	.p2align	4, 0x90
__ZN5case111hello_world28_$u7b$$u7b$closure$u7d$$u7d$17hb0dd35a3f0b0bb8eE:
Lfunc_begin25:
	.loc	4 6 0
	.cfi_startproc
	.cfi_personality 155, _rust_eh_personality
	.cfi_lsda 16, Lexception5
	pushq	%rbp
	.cfi_def_cfa_offset 16
	.cfi_offset %rbp, -16
	movq	%rsp, %rbp
	.cfi_def_cfa_register %rbp
	subq	$112, %rsp
	movq	%rsi, -112(%rbp)
	movq	%rdi, -96(%rbp)
	movq	%rsi, -32(%rbp)
Ltmp130:
	.loc	4 6 24 prologue_end
	movq	-96(%rbp), %rax
	movzbl	(%rax), %eax
	movl	%eax, -100(%rbp)
	testl	%eax, %eax
	je	LBB25_2
	jmp	LBB25_11
LBB25_11:
	.loc	4 0 24 is_stmt 0
	movl	-100(%rbp), %eax
	.loc	4 6 24
	subl	$1, %eax
	je	LBB25_3
	jmp	LBB25_12
LBB25_12:
	jmp	LBB25_4
	ud2
LBB25_2:
	.loc	4 0 24
	movq	-112(%rbp), %rax
	.loc	4 6 24
	movq	%rax, -24(%rbp)
Ltmp125:
	.loc	4 7 5 is_stmt 1
	leaq	l___unnamed_10(%rip), %rsi
	leaq	l___unnamed_8(%rip), %rcx
	xorl	%eax, %eax
	movl	%eax, %r8d
	leaq	-80(%rbp), %rdi
	movl	$1, %edx
	callq	__ZN4core3fmt9Arguments6new_v117h6819542474ea6e81E
Ltmp126:
	jmp	LBB25_9
LBB25_3:
	.loc	4 6 24
	xorl	%eax, %eax
	testb	$1, %al
	jne	LBB25_3
	jmp	LBB25_6
LBB25_4:
	xorl	%eax, %eax
	testb	$1, %al
	jne	LBB25_4
	leaq	_str.0(%rip), %rdi
	leaq	l___unnamed_11(%rip), %rdx
	movl	$34, %esi
	callq	__ZN4core9panicking5panic17h46977cf6deabee02E
LBB25_6:
	leaq	_str.1(%rip), %rdi
	leaq	l___unnamed_11(%rip), %rdx
	movl	$35, %esi
	callq	__ZN4core9panicking5panic17h46977cf6deabee02E
LBB25_7:
	movq	-96(%rbp), %rax
	movb	$2, (%rax)
	movq	-16(%rbp), %rdi
	callq	__Unwind_Resume
LBB25_8:
Ltmp129:
	.loc	4 0 24 is_stmt 0
	movq	%rax, %rcx
	movl	%edx, %eax
	movq	%rcx, -16(%rbp)
	movl	%eax, -8(%rbp)
	jmp	LBB25_7
LBB25_9:
Ltmp127:
	leaq	-80(%rbp), %rdi
	.loc	4 7 5 is_stmt 1
	callq	__ZN3std2io5stdio6_print17h7643cdab72dcb238E
Ltmp128:
	jmp	LBB25_10
LBB25_10:
	.loc	4 8 2
	movb	$1, -81(%rbp)
	movq	-96(%rbp), %rax
	movb	$1, (%rax)
	movb	-81(%rbp), %al
	andb	$1, %al
	movzbl	%al, %eax
	addq	$112, %rsp
	popq	%rbp
	retq
Ltmp131:
Lfunc_end25:
	.cfi_endproc
	.section	__TEXT,__gcc_except_tab
	.p2align	2
GCC_except_table25:
Lexception5:
	.byte	255
	.byte	255
	.byte	1
	.uleb128 Lcst_end5-Lcst_begin5
Lcst_begin5:
	.uleb128 Ltmp125-Lfunc_begin25
	.uleb128 Ltmp126-Ltmp125
	.uleb128 Ltmp129-Lfunc_begin25
	.byte	0
	.uleb128 Ltmp126-Lfunc_begin25
	.uleb128 Ltmp127-Ltmp126
	.byte	0
	.byte	0
	.uleb128 Ltmp127-Lfunc_begin25
	.uleb128 Ltmp128-Ltmp127
	.uleb128 Ltmp129-Lfunc_begin25
	.byte	0
Lcst_end5:
	.p2align	2

	.section	__TEXT,__text,regular,pure_instructions
	.p2align	4, 0x90
__ZN5case14main17h67ea1de36c36b34aE:
Lfunc_begin26:
	.loc	4 10 0
	.cfi_startproc
	pushq	%rbp
	.cfi_def_cfa_offset 16
	.cfi_offset %rbp, -16
	movq	%rsp, %rbp
	.cfi_def_cfa_register %rbp
	subq	$16, %rsp
Ltmp132:
	.loc	4 11 18 prologue_end
	callq	__ZN5case111hello_world17ha310ee2212466be9E
	movb	%al, -1(%rbp)
	movb	-1(%rbp), %al
	movb	%al, -16(%rbp)
Ltmp133:
	.loc	4 12 14
	movb	-16(%rbp), %al
	movb	%al, -8(%rbp)
	.loc	4 12 5 is_stmt 0
	movzbl	-8(%rbp), %edi
	callq	__ZN16futures_executor10local_pool8block_on17h5ee90260fc65bbf2E
Ltmp134:
	.loc	4 13 2 is_stmt 1
	addq	$16, %rsp
	popq	%rbp
	retq
Ltmp135:
Lfunc_end26:
	.cfi_endproc

	.globl	_main
	.p2align	4, 0x90
_main:
Lfunc_begin27:
	.cfi_startproc
	pushq	%rbp
	.cfi_def_cfa_offset 16
	.cfi_offset %rbp, -16
	movq	%rsp, %rbp
	.cfi_def_cfa_register %rbp
	movq	%rsi, %rdx
	movslq	%edi, %rsi
	leaq	__ZN5case14main17h67ea1de36c36b34aE(%rip), %rdi
	movl	$2, %ecx
	callq	__ZN3std2rt10lang_start17hbeeaed5a0635960aE
	popq	%rbp
	retq
Lfunc_end27:
	.cfi_endproc

	.section	__TEXT,__const
l___unnamed_2:
	.ascii	"cannot execute `LocalPool` executor from within another executor"

l___unnamed_12:
	.ascii	"/Users/yixiao/.cargo/registry/src/rsproxy.cn-8f6827c7555bfaf8/futures-executor-0.3.25/src/local_pool.rs"

	.section	__DATA,__const
	.p2align	3
l___unnamed_3:
	.quad	l___unnamed_12
	.asciz	"g\000\000\000\000\000\000\000Q\000\000\000\032\000\000"

	.p2align	3
l___unnamed_4:
	.quad	__ZN16futures_executor10local_pool21CURRENT_THREAD_NOTIFY7__getit17hbc44a4be68b13dcbE

	.p2align	3
l___unnamed_1:
	.quad	__ZN4core3ptr85drop_in_place$LT$std..rt..lang_start$LT$$LP$$RP$$GT$..$u7b$$u7b$closure$u7d$$u7d$$GT$17h68c08e8eb5d12d22E
	.asciz	"\b\000\000\000\000\000\000\000\b\000\000\000\000\000\000"
	.quad	__ZN4core3ops8function6FnOnce40call_once$u7b$$u7b$vtable.shim$u7d$$u7d$17h74173eb59cfa1fe7E
	.quad	__ZN3std2rt10lang_start28_$u7b$$u7b$closure$u7d$$u7d$17ha3071c7506129691E
	.quad	__ZN3std2rt10lang_start28_$u7b$$u7b$closure$u7d$$u7d$17ha3071c7506129691E

	.section	__TEXT,__const
l___unnamed_5:
	.ascii	"cannot access a Thread Local Storage value during or after destruction"

l___unnamed_13:
	.ascii	"/rustc/897e37553bba8b42751c67658967889d11ecd120/library/std/src/thread/local.rs"

	.section	__DATA,__const
	.p2align	3
l___unnamed_6:
	.quad	l___unnamed_13
	.asciz	"O\000\000\000\000\000\000\000\245\001\000\000\032\000\000"

	.section	__TEXT,__const
l___unnamed_14:
	.ascii	"invalid args"

	.section	__DATA,__const
	.p2align	3
l___unnamed_7:
	.quad	l___unnamed_14
	.asciz	"\f\000\000\000\000\000\000"

	.section	__TEXT,__const
	.p2align	3
l___unnamed_8:
	.byte	0

l___unnamed_15:
	.ascii	"/rustc/897e37553bba8b42751c67658967889d11ecd120/library/core/src/fmt/mod.rs"

	.section	__DATA,__const
	.p2align	3
l___unnamed_9:
	.quad	l___unnamed_15
	.asciz	"K\000\000\000\000\000\000\000\214\001\000\000\r\000\000"

	.section	__TEXT,__const
l___unnamed_16:
	.ascii	"src/main.rs"

	.section	__DATA,__const
	.p2align	3
l___unnamed_11:
	.quad	l___unnamed_16
	.asciz	"\013\000\000\000\000\000\000\000\006\000\000\000\030\000\000"

	.section	__TEXT,__const
	.p2align	4
_str.0:
	.ascii	"`async fn` resumed after panicking"

	.p2align	4
_str.1:
	.ascii	"`async fn` resumed after completion"

l___unnamed_17:
	.ascii	"hello, world!\n"

	.section	__DATA,__const
	.p2align	3
l___unnamed_10:
	.quad	l___unnamed_17
	.asciz	"\016\000\000\000\000\000\000"

	.section	__DATA,__const
Lsec_end0:
	.section	__TEXT,__text,regular,pure_instructions
Lsec_end1: